target datalayout = "e-m:e-p270:32:32-p271:32:32-p272:64:64-i64:64-i128:128-f80:128-n8:16:32:64-S128"
target triple = "x86_64-pc-linux-gnu"

%struct.expert_field = type { i32, i32 }
%struct._packet_info = type { ptr, ptr, i32, i32, %struct.nstime_t, %struct.nstime_t, %struct.nstime_t, i8, ptr, ptr, ptr, ptr, %struct._address, %struct._address, %struct._address, %struct._address, %struct._address, %struct._address, i32, ptr, i8, [3 x i8], %struct.anon, i32, i32, i32, i32, ptr, i8, ptr, ptr, i16, i16, i32, i32, i16, i32, i32, ptr, ptr, ptr, i8, i8, i16, i16, i16, i32, i16, i16, ptr, ptr, ptr, ptr, ptr, i32, i32 }
%struct.nstime_t = type { i64, i32 }
%struct._address = type { i32, i32, ptr, ptr }
%struct.anon = type { i8, [3 x i8] }

@hf_marker = internal global i32 0, align 4
@hf_marker_segment = internal global i32 0, align 4
@hf_len = internal global i32 0, align 4
@hf_identifier = internal global i32 0, align 4
@hf_remain_seg_data = internal global i32 0, align 4
@hf_endianness = internal global i32 0, align 4
@hf_start_ifd_offset = internal global i32 0, align 4
@hf_ifd_tag = internal global i32 0, align 4
@ett_marker_segment = internal global i32 0, align 4
@ei_file_jpeg_first_identifier_not_jfif = internal global %struct.expert_field zeroinitializer, align 4
@ei_start_ifd_offset = internal global %struct.expert_field zeroinitializer, align 4
@.str.394 = private unnamed_addr constant [5 x i8] c"Exif\00", align 1
@.str.395 = private unnamed_addr constant [5 x i8] c"JFIF\00", align 1
@.str.399 = private unnamed_addr constant [14 x i8] c": %s (0x%04X)\00", align 1
@.str.403 = private unnamed_addr constant [9 x i8] c"%u bytes\00", align 1
@.str.404 = private unnamed_addr constant [22 x i8] c" (Unknown identifier)\00", align 1
@.str.405 = private unnamed_addr constant [14 x i8] c"little endian\00", align 1
@.str.406 = private unnamed_addr constant [11 x i8] c"big endian\00", align 1
@.str.407 = private unnamed_addr constant [77 x i8] c"Incorrect encoding 0x%04x- skipping the remainder of this application marker\00", align 1
@.str.408 = private unnamed_addr constant [26 x i8] c" (bogus, should be >= %u)\00", align 1
@.str.409 = private unnamed_addr constant [21 x i8] c"Image File Directory\00", align 1

; Function Attrs: null_pointer_is_valid sspstrong uwtable
define internal void @process_tiff(ptr noundef %0, ptr noundef %1, ptr noundef %2) #0 {
  %4 = alloca ptr, align 8
  %5 = alloca ptr, align 8
  %6 = alloca ptr, align 8
  %7 = alloca i32, align 4
  %8 = alloca i32, align 4
  %9 = alloca i16, align 2
  %10 = alloca i32, align 4
  %11 = alloca i32, align 4
  %12 = alloca ptr, align 8
  store ptr %0, ptr %4, align 8
  store ptr %1, ptr %5, align 8
  store ptr %2, ptr %6, align 8
  call void @llvm.lifetime.start.p0(i64 4, ptr %7) #4
  call void @llvm.lifetime.start.p0(i64 4, ptr %8) #4
  store i32 0, ptr %8, align 4
  call void @llvm.lifetime.start.p0(i64 2, ptr %9) #4
  %13 = load ptr, ptr %5, align 8
  %14 = load i32, ptr %8, align 4
  %15 = call zeroext i16 @tvb_get_ntohs(ptr noundef %13, i32 noundef %14)
  store i16 %15, ptr %9, align 2
  %16 = load i16, ptr %9, align 2
  %17 = zext i16 %16 to i32
  %18 = icmp eq i32 %17, 18761
  br i1 %18, label %19, label %27

19:                                               ; preds = %3
  store i32 -2147483648, ptr %7, align 4
  %20 = load ptr, ptr %4, align 8
  %21 = load i32, ptr @hf_endianness, align 4
  %22 = load ptr, ptr %5, align 8
  %23 = load i32, ptr %8, align 4
  %24 = load i16, ptr %9, align 2
  %25 = zext i16 %24 to i32
  %26 = call ptr (ptr, i32, ptr, i32, i32, i32, ptr, ...) @proto_tree_add_uint_format_value(ptr noundef %20, i32 noundef %21, ptr noundef %22, i32 noundef %23, i32 noundef 2, i32 noundef %25, ptr noundef @.str.405)
  br label %50

27:                                               ; preds = %3
  %28 = load i16, ptr %9, align 2
  %29 = zext i16 %28 to i32
  %30 = icmp eq i32 %29, 19789
  br i1 %30, label %31, label %39

31:                                               ; preds = %27
  store i32 0, ptr %7, align 4
  %32 = load ptr, ptr %4, align 8
  %33 = load i32, ptr @hf_endianness, align 4
  %34 = load ptr, ptr %5, align 8
  %35 = load i32, ptr %8, align 4
  %36 = load i16, ptr %9, align 2
  %37 = zext i16 %36 to i32
  %38 = call ptr (ptr, i32, ptr, i32, i32, i32, ptr, ...) @proto_tree_add_uint_format_value(ptr noundef %32, i32 noundef %33, ptr noundef %34, i32 noundef %35, i32 noundef 2, i32 noundef %37, ptr noundef @.str.406)
  br label %49

39:                                               ; preds = %27
  %40 = load ptr, ptr %4, align 8
  %41 = load i32, ptr @hf_endianness, align 4
  %42 = load ptr, ptr %5, align 8
  %43 = load i32, ptr %8, align 4
  %44 = load i16, ptr %9, align 2
  %45 = zext i16 %44 to i32
  %46 = load i16, ptr %9, align 2
  %47 = zext i16 %46 to i32
  %48 = call ptr (ptr, i32, ptr, i32, i32, i32, ptr, ...) @proto_tree_add_uint_format_value(ptr noundef %40, i32 noundef %41, ptr noundef %42, i32 noundef %43, i32 noundef 2, i32 noundef %45, ptr noundef @.str.407, i32 noundef %47)
  store i32 1, ptr %10, align 4
  br label %79

49:                                               ; preds = %31
  br label %50

50:                                               ; preds = %49, %19
  %51 = load i32, ptr %8, align 4
  %52 = add i32 %51, 2
  store i32 %52, ptr %8, align 4
  %53 = load i32, ptr %8, align 4
  %54 = add i32 %53, 2
  store i32 %54, ptr %8, align 4
  call void @llvm.lifetime.start.p0(i64 4, ptr %11) #4
  call void @llvm.lifetime.start.p0(i64 8, ptr %12) #4
  %55 = load ptr, ptr %4, align 8
  %56 = load i32, ptr @hf_start_ifd_offset, align 4
  %57 = load ptr, ptr %5, align 8
  %58 = load i32, ptr %8, align 4
  %59 = load i32, ptr %7, align 4
  %60 = call ptr @proto_tree_add_item_ret_uint(ptr noundef %55, i32 noundef %56, ptr noundef %57, i32 noundef %58, i32 noundef 4, i32 noundef %59, ptr noundef %11)
  store ptr %60, ptr %12, align 8
  %61 = load i32, ptr %8, align 4
  %62 = add i32 %61, 4
  store i32 %62, ptr %8, align 4
  %63 = load i32, ptr %11, align 4
  %64 = load i32, ptr %8, align 4
  %65 = icmp ult i32 %63, %64
  br i1 %65, label %66, label %71

66:                                               ; preds = %50
  %67 = load ptr, ptr %6, align 8
  %68 = load ptr, ptr %12, align 8
  %69 = load i32, ptr %8, align 4
  %70 = call ptr (ptr, ptr, ptr, ptr, ...) @expert_add_info_format(ptr noundef %67, ptr noundef %68, ptr noundef @ei_start_ifd_offset, ptr noundef @.str.408, i32 noundef %69)
  store i32 1, ptr %10, align 4
  br label %78

71:                                               ; preds = %50
  %72 = load ptr, ptr %4, align 8
  %73 = load ptr, ptr %5, align 8
  %74 = load ptr, ptr %6, align 8
  %75 = load i32, ptr %7, align 4
  %76 = load i32, ptr %11, align 4
  %77 = load i32, ptr @hf_ifd_tag, align 4
  call void @process_tiff_ifd_chain(ptr noundef %72, ptr noundef %73, ptr noundef %74, i32 noundef %75, i32 noundef %76, i32 noundef %77, ptr noundef @.str.409)
  store i32 0, ptr %10, align 4
  br label %78

78:                                               ; preds = %71, %66
  call void @llvm.lifetime.end.p0(i64 8, ptr %12) #4
  call void @llvm.lifetime.end.p0(i64 4, ptr %11) #4
  br label %79

79:                                               ; preds = %78, %39
  call void @llvm.lifetime.end.p0(i64 2, ptr %9) #4
  call void @llvm.lifetime.end.p0(i64 4, ptr %8) #4
  call void @llvm.lifetime.end.p0(i64 4, ptr %7) #4
  %80 = load i32, ptr %10, align 4
  switch i32 %80, label %82 [
    i32 0, label %81
    i32 1, label %81
  ]

81:                                               ; preds = %79, %79
  ret void

82:                                               ; preds = %79
  unreachable
}

; Function Attrs: null_pointer_is_valid sspstrong uwtable
define internal void @process_app1_segment(ptr noundef %0, ptr noundef %1, ptr noundef %2, i32 noundef %3, i16 noundef zeroext %4, ptr noundef %5, i1 noundef zeroext %6) #0 {
  %8 = alloca ptr, align 8
  %9 = alloca ptr, align 8
  %10 = alloca ptr, align 8
  %11 = alloca i32, align 4
  %12 = alloca i16, align 2
  %13 = alloca ptr, align 8
  %14 = alloca i8, align 1
  %15 = alloca ptr, align 8
  %16 = alloca ptr, align 8
  %17 = alloca ptr, align 8
  %18 = alloca i32, align 4
  %19 = alloca i32, align 4
  %20 = alloca ptr, align 8
  store ptr %0, ptr %8, align 8
  store ptr %1, ptr %9, align 8
  store ptr %2, ptr %10, align 8
  store i32 %3, ptr %11, align 4
  store i16 %4, ptr %12, align 2
  store ptr %5, ptr %13, align 8
  %21 = zext i1 %6 to i8
  store i8 %21, ptr %14, align 1
  call void @llvm.lifetime.start.p0(i64 8, ptr %15) #4
  call void @llvm.lifetime.start.p0(i64 8, ptr %16) #4
  call void @llvm.lifetime.start.p0(i64 8, ptr %17) #4
  call void @llvm.lifetime.start.p0(i64 4, ptr %18) #4
  call void @llvm.lifetime.start.p0(i64 4, ptr %19) #4
  store i32 0, ptr %19, align 4
  %22 = load ptr, ptr %8, align 8
  %23 = load i32, ptr @hf_marker_segment, align 4
  %24 = load ptr, ptr %9, align 8
  %25 = call ptr @proto_tree_add_item(ptr noundef %22, i32 noundef %23, ptr noundef %24, i32 noundef 0, i32 noundef -1, i32 noundef 0)
  store ptr %25, ptr %15, align 8
  %26 = load ptr, ptr %15, align 8
  %27 = load i32, ptr @ett_marker_segment, align 4
  %28 = call ptr @proto_item_add_subtree(ptr noundef %26, i32 noundef %27)
  store ptr %28, ptr %16, align 8
  %29 = load ptr, ptr %15, align 8
  %30 = load ptr, ptr %13, align 8
  %31 = load i16, ptr %12, align 2
  %32 = zext i16 %31 to i32
  call void (ptr, ptr, ...) @proto_item_append_text(ptr noundef %29, ptr noundef @.str.399, ptr noundef %30, i32 noundef %32)
  %33 = load ptr, ptr %16, align 8
  %34 = load i32, ptr @hf_marker, align 4
  %35 = load ptr, ptr %9, align 8
  %36 = load i32, ptr %19, align 4
  %37 = call ptr @proto_tree_add_item(ptr noundef %33, i32 noundef %34, ptr noundef %35, i32 noundef %36, i32 noundef 2, i32 noundef 0)
  %38 = load i32, ptr %19, align 4
  %39 = add i32 %38, 2
  store i32 %39, ptr %19, align 4
  %40 = load ptr, ptr %16, align 8
  %41 = load i32, ptr @hf_len, align 4
  %42 = load ptr, ptr %9, align 8
  %43 = load i32, ptr %19, align 4
  %44 = call ptr @proto_tree_add_item(ptr noundef %40, i32 noundef %41, ptr noundef %42, i32 noundef %43, i32 noundef 2, i32 noundef 0)
  %45 = load i32, ptr %19, align 4
  %46 = add i32 %45, 2
  store i32 %46, ptr %19, align 4
  %47 = load ptr, ptr %10, align 8
  %48 = getelementptr inbounds nuw %struct._packet_info, ptr %47, i32 0, i32 51
  %49 = load ptr, ptr %48, align 8
  %50 = load ptr, ptr %9, align 8
  %51 = load i32, ptr %19, align 4
  %52 = call ptr @tvb_get_stringz_enc(ptr noundef %49, ptr noundef %50, i32 noundef %51, ptr noundef %18, i32 noundef 0)
  store ptr %52, ptr %17, align 8
  %53 = load ptr, ptr %16, align 8
  %54 = load i32, ptr @hf_identifier, align 4
  %55 = load ptr, ptr %9, align 8
  %56 = load i32, ptr %19, align 4
  %57 = load i32, ptr %18, align 4
  %58 = call ptr @proto_tree_add_item(ptr noundef %53, i32 noundef %54, ptr noundef %55, i32 noundef %56, i32 noundef %57, i32 noundef 0)
  store ptr %58, ptr %15, align 8
  %59 = load i32, ptr %18, align 4
  %60 = load i32, ptr %19, align 4
  %61 = add i32 %60, %59
  store i32 %61, ptr %19, align 4
  %62 = load i8, ptr %14, align 1, !range !8, !noundef !9
  %63 = trunc i8 %62 to i1
  br i1 %63, label %64, label %72

64:                                               ; preds = %7
  %65 = load ptr, ptr %17, align 8
  %66 = call i32 @strcmp(ptr noundef %65, ptr noundef @.str.395) #5
  %67 = icmp ne i32 %66, 0
  br i1 %67, label %68, label %72

68:                                               ; preds = %64
  %69 = load ptr, ptr %10, align 8
  %70 = load ptr, ptr %15, align 8
  %71 = call ptr @expert_add_info(ptr noundef %69, ptr noundef %70, ptr noundef @ei_file_jpeg_first_identifier_not_jfif)
  br label %72

72:                                               ; preds = %68, %64, %7
  %73 = load ptr, ptr %17, align 8
  %74 = call i32 @strcmp(ptr noundef %73, ptr noundef @.str.394) #5
  %75 = icmp eq i32 %74, 0
  br i1 %75, label %76, label %85

76:                                               ; preds = %72
  %77 = load i32, ptr %19, align 4
  %78 = add i32 %77, 1
  store i32 %78, ptr %19, align 4
  call void @llvm.lifetime.start.p0(i64 8, ptr %20) #4
  %79 = load ptr, ptr %9, align 8
  %80 = load i32, ptr %19, align 4
  %81 = call ptr @tvb_new_subset_remaining(ptr noundef %79, i32 noundef %80)
  store ptr %81, ptr %20, align 8
  %82 = load ptr, ptr %16, align 8
  %83 = load ptr, ptr %20, align 8
  %84 = load ptr, ptr %10, align 8
  call void @process_tiff(ptr noundef %82, ptr noundef %83, ptr noundef %84)
  call void @llvm.lifetime.end.p0(i64 8, ptr %20) #4
  br label %96

85:                                               ; preds = %72
  %86 = load ptr, ptr %16, align 8
  %87 = load i32, ptr @hf_remain_seg_data, align 4
  %88 = load ptr, ptr %9, align 8
  %89 = load i32, ptr %19, align 4
  %90 = load i32, ptr %11, align 4
  %91 = sub i32 %90, 2
  %92 = load i32, ptr %18, align 4
  %93 = sub i32 %91, %92
  %94 = call ptr (ptr, i32, ptr, i32, i32, ptr, ptr, ...) @proto_tree_add_bytes_format_value(ptr noundef %86, i32 noundef %87, ptr noundef %88, i32 noundef %89, i32 noundef -1, ptr noundef null, ptr noundef @.str.403, i32 noundef %93)
  %95 = load ptr, ptr %15, align 8
  call void (ptr, ptr, ...) @proto_item_append_text(ptr noundef %95, ptr noundef @.str.404)
  br label %96

96:                                               ; preds = %85, %76
  call void @llvm.lifetime.end.p0(i64 4, ptr %19) #4
  call void @llvm.lifetime.end.p0(i64 4, ptr %18) #4
  call void @llvm.lifetime.end.p0(i64 8, ptr %17) #4
  call void @llvm.lifetime.end.p0(i64 8, ptr %16) #4
  call void @llvm.lifetime.end.p0(i64 8, ptr %15) #4
  ret void
}