; Function Attrs: null_pointer_is_valid sspstrong uwtable
define internal fastcc void @process_app1_segment(ptr noundef %0, ptr noundef %1, ptr noundef %2, i32 noundef range(i32 0, 65536) %3, i16 noundef zeroext %4, ptr noundef nonnull %5, i1 noundef zeroext %6) unnamed_addr #0 {
  %8 = alloca i32, align 4
  %9 = alloca i32, align 4
  call void @llvm.lifetime.start.p0(i64 4, ptr nonnull %9) #5
  %10 = load i32, ptr @hf_marker_segment, align 4
  %11 = tail call ptr @proto_tree_add_item(ptr noundef %0, i32 noundef %10, ptr noundef %1, i32 noundef 0, i32 noundef -1, i32 noundef 0)
  %12 = load i32, ptr @ett_marker_segment, align 4
  %13 = tail call ptr @proto_item_add_subtree(ptr noundef %11, i32 noundef %12)
  %14 = zext i16 %4 to i32
  tail call void (ptr, ptr, ...) @proto_item_append_text(ptr noundef %11, ptr noundef nonnull @.str.399, ptr noundef nonnull %5, i32 noundef %14)
  %15 = load i32, ptr @hf_marker, align 4
  %16 = tail call ptr @proto_tree_add_item(ptr noundef %13, i32 noundef %15, ptr noundef %1, i32 noundef 0, i32 noundef 2, i32 noundef 0)
  %17 = load i32, ptr @hf_len, align 4
  %18 = tail call ptr @proto_tree_add_item(ptr noundef %13, i32 noundef %17, ptr noundef %1, i32 noundef 2, i32 noundef 2, i32 noundef 0)
  %19 = getelementptr inbounds nuw i8, ptr %2, i64 408
  %20 = load ptr, ptr %19, align 8
  %21 = call ptr @tvb_get_stringz_enc(ptr noundef %20, ptr noundef %1, i32 noundef 4, ptr noundef nonnull %9, i32 noundef 0)
  %22 = load i32, ptr @hf_identifier, align 4
  %23 = load i32, ptr %9, align 4
  %24 = call ptr @proto_tree_add_item(ptr noundef %13, i32 noundef %22, ptr noundef %1, i32 noundef 4, i32 noundef %23, i32 noundef 0)
  %25 = load i32, ptr %9, align 4
  %26 = add i32 %25, 4
  br i1 %6, label %27, label %31

27:                                               ; preds = %7
  %28 = call i32 @strcmp(ptr noundef %21, ptr noundef nonnull dereferenceable(5) @.str.395) #6
  %.not = icmp eq i32 %28, 0
  br i1 %.not, label %31, label %29

29:                                               ; preds = %27
  %30 = call ptr @expert_add_info(ptr noundef %2, ptr noundef %24, ptr noundef nonnull @ei_file_jpeg_first_identifier_not_jfif)
  br label %31

31:                                               ; preds = %29, %27, %7
  %32 = call i32 @strcmp(ptr noundef %21, ptr noundef nonnull dereferenceable(5) @.str.394) #6
  %33 = icmp eq i32 %32, 0
  br i1 %33, label %34, label %58

34:                                               ; preds = %31
  %35 = add i32 %25, 5
  %36 = call ptr @tvb_new_subset_remaining(ptr noundef %1, i32 noundef %35)
  %37 = call zeroext i16 @tvb_get_ntohs(ptr noundef %36, i32 noundef 0)
  switch i16 %37, label %44 [
    i16 18761, label %38
    i16 19789, label %41
  ]

38:                                               ; preds = %34
  %39 = load i32, ptr @hf_endianness, align 4
  %40 = call ptr (ptr, i32, ptr, i32, i32, i32, ptr, ...) @proto_tree_add_uint_format_value(ptr noundef %13, i32 noundef %39, ptr noundef %36, i32 noundef 0, i32 noundef 2, i32 noundef 18761, ptr noundef nonnull @.str.405)
  br label %48

41:                                               ; preds = %34
  %42 = load i32, ptr @hf_endianness, align 4
  %43 = call ptr (ptr, i32, ptr, i32, i32, i32, ptr, ...) @proto_tree_add_uint_format_value(ptr noundef %13, i32 noundef %42, ptr noundef %36, i32 noundef 0, i32 noundef 2, i32 noundef 19789, ptr noundef nonnull @.str.406)
  br label %48

44:                                               ; preds = %34
  %45 = zext i16 %37 to i32
  %46 = load i32, ptr @hf_endianness, align 4
  %47 = call ptr (ptr, i32, ptr, i32, i32, i32, ptr, ...) @proto_tree_add_uint_format_value(ptr noundef %13, i32 noundef %46, ptr noundef %36, i32 noundef 0, i32 noundef 2, i32 noundef %45, ptr noundef nonnull @.str.407, i32 noundef %45)
  br label %process_tiff.exit

48:                                               ; preds = %41, %38
  %.0.i = phi i32 [ -2147483648, %38 ], [ 0, %41 ]
  call void @llvm.lifetime.start.p0(i64 4, ptr nonnull %8) #5
  %49 = load i32, ptr @hf_start_ifd_offset, align 4
  %50 = call ptr @proto_tree_add_item_ret_uint(ptr noundef %13, i32 noundef %49, ptr noundef %36, i32 noundef 4, i32 noundef 4, i32 noundef %.0.i, ptr noundef nonnull %8)
  %51 = load i32, ptr %8, align 4
  %52 = icmp ult i32 %51, 8
  br i1 %52, label %53, label %55

53:                                               ; preds = %48
  %54 = call ptr (ptr, ptr, ptr, ptr, ...) @expert_add_info_format(ptr noundef %2, ptr noundef %50, ptr noundef nonnull @ei_start_ifd_offset, ptr noundef nonnull @.str.408, i32 noundef 8)
  br label %57

55:                                               ; preds = %48
  %56 = load i32, ptr @hf_ifd_tag, align 4
  call fastcc void @process_tiff_ifd_chain(ptr noundef %13, ptr noundef %36, ptr noundef %2, i32 noundef %.0.i, i32 noundef %51, i32 noundef %56, ptr noundef nonnull @.str.409)
  br label %57

57:                                               ; preds = %55, %53
  call void @llvm.lifetime.end.p0(i64 4, ptr nonnull %8) #5
  br label %process_tiff.exit

58:                                               ; preds = %31
  %59 = load i32, ptr @hf_remain_seg_data, align 4
  %60 = add nsw i32 %3, -2
  %61 = load i32, ptr %9, align 4
  %62 = sub i32 %60, %61
  %63 = call ptr (ptr, i32, ptr, i32, i32, ptr, ptr, ...) @proto_tree_add_bytes_format_value(ptr noundef %13, i32 noundef %59, ptr noundef %1, i32 noundef %26, i32 noundef -1, ptr noundef null, ptr noundef nonnull @.str.403, i32 noundef %62)
  call void (ptr, ptr, ...) @proto_item_append_text(ptr noundef %24, ptr noundef nonnull @.str.404)
  br label %process_tiff.exit

process_tiff.exit:                                ; preds = %57, %44, %58
  call void @llvm.lifetime.end.p0(i64 4, ptr nonnull %9) #5
  ret void
}